target datalayout = "e-m:e-p270:32:32-p271:32:32-p272:64:64-i64:64-i128:128-f80:128-n8:16:32:64-S128"
target triple = "x86_64-pc-linux-gnu"

%struct.timespec = type { i64, i64 }

@_ZL29_use_clock_monotonic_condattr = internal global i8 0, align 1

; Function Attrs: mustprogress nounwind uwtable
define internal void @_ZL15unpack_abs_timeP8timespecll(ptr noundef %0, i64 noundef %1, i64 noundef %2) #1 {
  %4 = alloca ptr, align 8
  %5 = alloca i64, align 8
  %6 = alloca i64, align 8
  %7 = alloca i64, align 8
  %8 = alloca i64, align 8
  %9 = alloca i64, align 8
  store ptr %0, ptr %4, align 8
  store i64 %1, ptr %5, align 8
  store i64 %2, ptr %6, align 8
  %10 = load i64, ptr %6, align 8
  %11 = add nsw i64 %10, 100000000
  store i64 %11, ptr %7, align 8
  %12 = load i64, ptr %5, align 8
  %13 = sdiv i64 %12, 1000
  store i64 %13, ptr %8, align 8
  %14 = load i64, ptr %5, align 8
  %15 = srem i64 %14, 1000
  store i64 %15, ptr %9, align 8
  %16 = load i64, ptr %8, align 8
  %17 = load i64, ptr %7, align 8
  %18 = icmp sge i64 %16, %17
  br i1 %18, label %19, label %25

19:                                               ; preds = %3
  %20 = load i64, ptr %7, align 8
  %21 = load ptr, ptr %4, align 8
  %22 = getelementptr inbounds %struct.timespec, ptr %21, i32 0, i32 0
  store i64 %20, ptr %22, align 8
  %23 = load ptr, ptr %4, align 8
  %24 = getelementptr inbounds %struct.timespec, ptr %23, i32 0, i32 1
  store i64 0, ptr %24, align 8
  br label %33

25:                                               ; preds = %3
  %26 = load i64, ptr %8, align 8
  %27 = load ptr, ptr %4, align 8
  %28 = getelementptr inbounds %struct.timespec, ptr %27, i32 0, i32 0
  store i64 %26, ptr %28, align 8
  %29 = load i64, ptr %9, align 8
  %30 = call noundef i64 @_Z15millis_to_nanosl(i64 noundef %29)
  %31 = load ptr, ptr %4, align 8
  %32 = getelementptr inbounds %struct.timespec, ptr %31, i32 0, i32 1
  store i64 %30, ptr %32, align 8
  br label %33

33:                                               ; preds = %25, %19
  ret void
}

; Function Attrs: mustprogress nounwind uwtable
define internal void @_ZL13calc_rel_timeP8timespecllll(ptr noundef %0, i64 noundef %1, i64 noundef %2, i64 noundef %3, i64 noundef %4) #1 {
  %6 = alloca ptr, align 8
  %7 = alloca i64, align 8
  %8 = alloca i64, align 8
  %9 = alloca i64, align 8
  %10 = alloca i64, align 8
  %11 = alloca i64, align 8
  %12 = alloca i64, align 8
  %13 = alloca i64, align 8
  store ptr %0, ptr %6, align 8
  store i64 %1, ptr %7, align 8
  store i64 %2, ptr %8, align 8
  store i64 %3, ptr %9, align 8
  store i64 %4, ptr %10, align 8
  %14 = load i64, ptr %8, align 8
  %15 = add nsw i64 %14, 100000000
  store i64 %15, ptr %11, align 8
  %16 = load i64, ptr %7, align 8
  %17 = sdiv i64 %16, 1000000000
  store i64 %17, ptr %12, align 8
  %18 = load i64, ptr %7, align 8
  %19 = srem i64 %18, 1000000000
  store i64 %19, ptr %7, align 8
  %20 = load i64, ptr %12, align 8
  %21 = icmp sge i64 %20, 100000000
  br i1 %21, label %22, label %28

22:                                               ; preds = %5
  %23 = load i64, ptr %11, align 8
  %24 = load ptr, ptr %6, align 8
  %25 = getelementptr inbounds %struct.timespec, ptr %24, i32 0, i32 0
  store i64 %23, ptr %25, align 8
  %26 = load ptr, ptr %6, align 8
  %27 = getelementptr inbounds %struct.timespec, ptr %26, i32 0, i32 1
  store i64 0, ptr %27, align 8
  br label %53

28:                                               ; preds = %5
  %29 = load i64, ptr %8, align 8
  %30 = load i64, ptr %12, align 8
  %31 = add nsw i64 %29, %30
  %32 = load ptr, ptr %6, align 8
  %33 = getelementptr inbounds %struct.timespec, ptr %32, i32 0, i32 0
  store i64 %31, ptr %33, align 8
  %34 = load i64, ptr %9, align 8
  %35 = load i64, ptr %10, align 8
  %36 = sdiv i64 1000000000, %35
  %37 = mul nsw i64 %34, %36
  %38 = load i64, ptr %7, align 8
  %39 = add nsw i64 %37, %38
  store i64 %39, ptr %13, align 8
  %40 = load i64, ptr %13, align 8
  %41 = icmp sge i64 %40, 1000000000
  br i1 %41, label %42, label %49

42:                                               ; preds = %28
  %43 = load ptr, ptr %6, align 8
  %44 = getelementptr inbounds %struct.timespec, ptr %43, i32 0, i32 0
  %45 = load i64, ptr %44, align 8
  %46 = add nsw i64 %45, 1
  store i64 %46, ptr %44, align 8
  %47 = load i64, ptr %13, align 8
  %48 = sub nsw i64 %47, 1000000000
  store i64 %48, ptr %13, align 8
  br label %49

49:                                               ; preds = %42, %28
  %50 = load i64, ptr %13, align 8
  %51 = load ptr, ptr %6, align 8
  %52 = getelementptr inbounds %struct.timespec, ptr %51, i32 0, i32 1
  store i64 %50, ptr %52, align 8
  br label %53

53:                                               ; preds = %49, %22
  ret void
}

; Function Attrs: mustprogress nounwind uwtable
define linkonce_odr hidden noundef i64 @_Z15millis_to_nanosl(i64 noundef %0) #1 comdat {
  %2 = alloca i64, align 8
  store i64 %0, ptr %2, align 8
  %3 = load i64, ptr %2, align 8
  %4 = mul nsw i64 %3, 1000000
  ret i64 %4
}

; Function Attrs: mustprogress nounwind uwtable
define internal void @_ZL10to_abstimeP8timespeclbb(ptr noundef %0, i64 noundef %1, i1 noundef zeroext %2, i1 noundef zeroext %3) #1 {
  %5 = alloca ptr, align 8
  %6 = alloca i64, align 8
  %7 = alloca i8, align 1
  %8 = alloca i8, align 1
  %9 = alloca i32, align 4
  %10 = alloca %struct.timespec, align 8
  %11 = alloca i32, align 4
  store ptr %0, ptr %5, align 8
  store i64 %1, ptr %6, align 8
  %12 = zext i1 %2 to i8
  store i8 %12, ptr %7, align 1
  %13 = zext i1 %3 to i8
  store i8 %13, ptr %8, align 1
  %14 = load i64, ptr %6, align 8
  %15 = icmp slt i64 %14, 0
  br i1 %15, label %16, label %17

16:                                               ; preds = %4
  store i64 0, ptr %6, align 8
  br label %17

17:                                               ; preds = %16, %4
  store i32 1, ptr %9, align 4
  %18 = load i8, ptr %7, align 1
  %19 = trunc i8 %18 to i1
  br i1 %19, label %26, label %20

20:                                               ; preds = %17
  %21 = load i8, ptr @_ZL29_use_clock_monotonic_condattr, align 1
  %22 = trunc i8 %21 to i1
  br i1 %22, label %23, label %26

23:                                               ; preds = %20
  %24 = load i8, ptr %8, align 1
  %25 = trunc i8 %24 to i1
  br i1 %25, label %26, label %27

26:                                               ; preds = %23, %20, %17
  store i32 0, ptr %9, align 4
  br label %27

27:                                               ; preds = %26, %23
  %28 = load i32, ptr %9, align 4
  %29 = call i32 @clock_gettime(i32 noundef %28, ptr noundef %10) #7
  store i32 %29, ptr %11, align 4
  %30 = load i8, ptr %7, align 1
  %31 = trunc i8 %30 to i1
  br i1 %31, label %39, label %32

32:                                               ; preds = %27
  %33 = load ptr, ptr %5, align 8
  %34 = load i64, ptr %6, align 8
  %35 = getelementptr inbounds %struct.timespec, ptr %10, i32 0, i32 0
  %36 = load i64, ptr %35, align 8
  %37 = getelementptr inbounds %struct.timespec, ptr %10, i32 0, i32 1
  %38 = load i64, ptr %37, align 8
  call void @_ZL13calc_rel_timeP8timespecllll(ptr noundef %33, i64 noundef %34, i64 noundef %36, i64 noundef %38, i64 noundef 1000000000)
  br label %44

39:                                               ; preds = %27
  %40 = load ptr, ptr %5, align 8
  %41 = load i64, ptr %6, align 8
  %42 = getelementptr inbounds %struct.timespec, ptr %10, i32 0, i32 0
  %43 = load i64, ptr %42, align 8
  call void @_ZL15unpack_abs_timeP8timespecll(ptr noundef %40, i64 noundef %41, i64 noundef %43)
  br label %44

44:                                               ; preds = %39, %32
  ret void
}

; Function Attrs: mustprogress nounwind uwtable
define internal noundef i64 @_ZL23millis_to_nanos_boundedl(i64 noundef %0) #1 {
  %2 = alloca i64, align 8
  store i64 %0, ptr %2, align 8
  %3 = load i64, ptr %2, align 8
  %4 = sdiv i64 %3, 1000
  %5 = icmp sgt i64 %4, 100000000
  br i1 %5, label %6, label %7

6:                                                ; preds = %1
  store i64 100000000000, ptr %2, align 8
  br label %7

7:                                                ; preds = %6, %1
  %8 = load i64, ptr %2, align 8
  %9 = call noundef i64 @_Z15millis_to_nanosl(i64 noundef %8)
  ret i64 %9
}

; Function Attrs: mustprogress nounwind uwtable
define hidden void @_ZN2os5Posix14to_RTC_abstimeEP8timespecl(ptr noundef %0, i64 noundef %1) #1 align 2 {
  %3 = alloca ptr, align 8
  %4 = alloca i64, align 8
  store ptr %0, ptr %3, align 8
  store i64 %1, ptr %4, align 8
  %5 = load ptr, ptr %3, align 8
  %6 = load i64, ptr %4, align 8
  %7 = call noundef i64 @_ZL23millis_to_nanos_boundedl(i64 noundef %6)
  call void @_ZL10to_abstimeP8timespeclbb(ptr noundef %5, i64 noundef %7, i1 noundef zeroext false, i1 noundef zeroext true)
  ret void
}