; Function Attrs: mustprogress nounwind uwtable
define hidden void @_ZN2os5Posix14to_RTC_abstimeEP8timespecl(ptr nocapture noundef writeonly %0, i64 noundef %1) local_unnamed_addr #1 align 2 {
  %3 = alloca %struct.timespec, align 8
  %4 = icmp sgt i64 %1, 100000000999
  %5 = mul nsw i64 %1, 1000000
  %6 = select i1 %4, i64 100000000000000000, i64 %5
  call void @llvm.lifetime.start.p0(i64 16, ptr nonnull %3)
  %7 = call i32 @clock_gettime(i32 noundef 0, ptr noundef nonnull %3) #25
  %8 = load i64, ptr %3, align 8
  %9 = icmp sgt i64 %6, 99999999999999999
  br i1 %9, label %10, label %12

10:                                               ; preds = %2
  %11 = add nsw i64 %8, 100000000
  store i64 %11, ptr %0, align 8
  br label %_ZL10to_abstimeP8timespeclbb.exit

12:                                               ; preds = %2
  %spec.store.select.i = call i64 @llvm.smax.i64(i64 %6, i64 0)
  %13 = getelementptr inbounds i8, ptr %3, i64 8
  %14 = load i64, ptr %13, align 8
  %15 = udiv i64 %spec.store.select.i, 1000000000
  %16 = urem i64 %spec.store.select.i, 1000000000
  %17 = add nsw i64 %8, %15
  store i64 %17, ptr %0, align 8
  %18 = add nsw i64 %14, %16
  %19 = icmp sgt i64 %18, 999999999
  br i1 %19, label %20, label %_ZL10to_abstimeP8timespeclbb.exit

20:                                               ; preds = %12
  %21 = add nsw i64 %17, 1
  store i64 %21, ptr %0, align 8
  %22 = add nsw i64 %18, -1000000000
  br label %_ZL10to_abstimeP8timespeclbb.exit

_ZL10to_abstimeP8timespeclbb.exit:                ; preds = %10, %12, %20
  %.sink.i.sink.i = phi i64 [ 0, %10 ], [ %22, %20 ], [ %18, %12 ]
  %23 = getelementptr inbounds i8, ptr %0, i64 8
  store i64 %.sink.i.sink.i, ptr %23, align 8
  call void @llvm.lifetime.end.p0(i64 16, ptr nonnull %3)
  ret void
}